target datalayout = "e-m:e-p270:32:32-p271:32:32-p272:64:64-i64:64-i128:128-f80:128-n8:16:32:64-S128"
target triple = "x86_64-pc-linux-gnu"

%"struct.pxrInternal_v0_24__pxrReserved__::TsTest_SplineData::InnerLoopParams" = type { i8, double, double, double, double, i8, double }
%"struct.pxrInternal_v0_24__pxrReserved__::TsTest_SplineData::Extrapolation" = type <{ i32, [4 x i8], double, i32, [4 x i8] }>
%"class.pxrInternal_v0_24__pxrReserved__::TsTest_SplineData" = type { i8, %"class.std::set", %"struct.pxrInternal_v0_24__pxrReserved__::TsTest_SplineData::Extrapolation", %"struct.pxrInternal_v0_24__pxrReserved__::TsTest_SplineData::Extrapolation", %"struct.pxrInternal_v0_24__pxrReserved__::TsTest_SplineData::InnerLoopParams" }
%"class.std::set" = type { %"class.std::_Rb_tree" }
%"class.std::_Rb_tree" = type { %"struct.std::_Rb_tree<pxrInternal_v0_24__pxrReserved__::TsTest_SplineData::Knot, pxrInternal_v0_24__pxrReserved__::TsTest_SplineData::Knot, std::_Identity<pxrInternal_v0_24__pxrReserved__::TsTest_SplineData::Knot>, std::less<pxrInternal_v0_24__pxrReserved__::TsTest_SplineData::Knot>>::_Rb_tree_impl" }
%"struct.std::_Rb_tree<pxrInternal_v0_24__pxrReserved__::TsTest_SplineData::Knot, pxrInternal_v0_24__pxrReserved__::TsTest_SplineData::Knot, std::_Identity<pxrInternal_v0_24__pxrReserved__::TsTest_SplineData::Knot>, std::less<pxrInternal_v0_24__pxrReserved__::TsTest_SplineData::Knot>>::_Rb_tree_impl" = type { [8 x i8], %"struct.std::_Rb_tree_header" }
%"struct.std::_Rb_tree_header" = type { %"struct.std::_Rb_tree_node_base", i64 }
%"struct.std::_Rb_tree_node_base" = type { i32, ptr, ptr, ptr }

; Function Attrs: mustprogress nounwind uwtable
define noundef nonnull align 8 dereferenceable(56) ptr @_ZN32pxrInternal_v0_24__pxrReserved__17TsTest_SplineData15InnerLoopParamsaSERKS1_(ptr noundef nonnull align 8 dereferenceable(56) %0, ptr noundef nonnull align 8 dereferenceable(56) %1) #2 align 2 {
  %3 = alloca ptr, align 8
  %4 = alloca ptr, align 8
  store ptr %0, ptr %3, align 8
  store ptr %1, ptr %4, align 8
  %5 = load ptr, ptr %3, align 8
  %6 = getelementptr inbounds nuw %"struct.pxrInternal_v0_24__pxrReserved__::TsTest_SplineData::InnerLoopParams", ptr %5, i32 0, i32 0
  %7 = load ptr, ptr %4, align 8
  %8 = getelementptr inbounds nuw %"struct.pxrInternal_v0_24__pxrReserved__::TsTest_SplineData::InnerLoopParams", ptr %7, i32 0, i32 0
  call void @llvm.memcpy.p0.p0.i64(ptr align 8 %6, ptr align 8 %8, i64 56, i1 false)
  ret ptr %5
}

; Function Attrs: mustprogress nounwind uwtable
define noundef nonnull align 8 dereferenceable(20) ptr @_ZN32pxrInternal_v0_24__pxrReserved__17TsTest_SplineData13ExtrapolationaSERKS1_(ptr noundef nonnull align 8 dereferenceable(20) %0, ptr noundef nonnull align 8 dereferenceable(20) %1) #2 align 2 {
  %3 = alloca ptr, align 8
  %4 = alloca ptr, align 8
  store ptr %0, ptr %3, align 8
  store ptr %1, ptr %4, align 8
  %5 = load ptr, ptr %3, align 8
  %6 = getelementptr inbounds nuw %"struct.pxrInternal_v0_24__pxrReserved__::TsTest_SplineData::Extrapolation", ptr %5, i32 0, i32 0
  %7 = load ptr, ptr %4, align 8
  %8 = getelementptr inbounds nuw %"struct.pxrInternal_v0_24__pxrReserved__::TsTest_SplineData::Extrapolation", ptr %7, i32 0, i32 0
  call void @llvm.memcpy.p0.p0.i64(ptr align 8 %6, ptr align 8 %8, i64 20, i1 false)
  ret ptr %5
}

; Function Attrs: mustprogress uwtable
define linkonce_odr noundef nonnull align 8 dereferenceable(48) ptr @_ZNSt3setIN32pxrInternal_v0_24__pxrReserved__17TsTest_SplineData4KnotESt4lessIS2_ESaIS2_EEaSERKS6_(ptr noundef nonnull align 8 dereferenceable(48) %0, ptr noundef nonnull align 8 dereferenceable(48) %1) #0 comdat align 2 {
  %3 = alloca ptr, align 8
  %4 = alloca ptr, align 8
  store ptr %0, ptr %3, align 8
  store ptr %1, ptr %4, align 8
  %5 = load ptr, ptr %3, align 8
  %6 = getelementptr inbounds nuw %"class.std::set", ptr %5, i32 0, i32 0
  %7 = load ptr, ptr %4, align 8
  %8 = getelementptr inbounds nuw %"class.std::set", ptr %7, i32 0, i32 0
  %9 = call noundef nonnull align 8 dereferenceable(48) ptr @_ZNSt8_Rb_treeIN32pxrInternal_v0_24__pxrReserved__17TsTest_SplineData4KnotES2_St9_IdentityIS2_ESt4lessIS2_ESaIS2_EEaSERKS8_(ptr noundef nonnull align 8 dereferenceable(48) %6, ptr noundef nonnull align 8 dereferenceable(48) %8)
  ret ptr %5
}

; Function Attrs: mustprogress uwtable
define noundef nonnull align 8 dereferenceable(160) ptr @_ZN32pxrInternal_v0_24__pxrReserved__17TsTest_SplineDataaSERKS0_(ptr noundef nonnull align 8 dereferenceable(160) %0, ptr noundef nonnull align 8 dereferenceable(160) %1) #0 align 2 {
  %3 = alloca ptr, align 8
  %4 = alloca ptr, align 8
  store ptr %0, ptr %3, align 8
  store ptr %1, ptr %4, align 8
  %5 = load ptr, ptr %3, align 8
  %6 = load ptr, ptr %4, align 8
  %7 = getelementptr inbounds nuw %"class.pxrInternal_v0_24__pxrReserved__::TsTest_SplineData", ptr %6, i32 0, i32 0
  %8 = load i8, ptr %7, align 8
  %9 = trunc i8 %8 to i1
  %10 = getelementptr inbounds nuw %"class.pxrInternal_v0_24__pxrReserved__::TsTest_SplineData", ptr %5, i32 0, i32 0
  %11 = zext i1 %9 to i8
  store i8 %11, ptr %10, align 8
  %12 = getelementptr inbounds nuw %"class.pxrInternal_v0_24__pxrReserved__::TsTest_SplineData", ptr %5, i32 0, i32 1
  %13 = load ptr, ptr %4, align 8
  %14 = getelementptr inbounds nuw %"class.pxrInternal_v0_24__pxrReserved__::TsTest_SplineData", ptr %13, i32 0, i32 1
  %15 = call noundef nonnull align 8 dereferenceable(48) ptr @_ZNSt3setIN32pxrInternal_v0_24__pxrReserved__17TsTest_SplineData4KnotESt4lessIS2_ESaIS2_EEaSERKS6_(ptr noundef nonnull align 8 dereferenceable(48) %12, ptr noundef nonnull align 8 dereferenceable(48) %14)
  %16 = getelementptr inbounds nuw %"class.pxrInternal_v0_24__pxrReserved__::TsTest_SplineData", ptr %5, i32 0, i32 2
  %17 = load ptr, ptr %4, align 8
  %18 = getelementptr inbounds nuw %"class.pxrInternal_v0_24__pxrReserved__::TsTest_SplineData", ptr %17, i32 0, i32 2
  %19 = call noundef nonnull align 8 dereferenceable(20) ptr @_ZN32pxrInternal_v0_24__pxrReserved__17TsTest_SplineData13ExtrapolationaSERKS1_(ptr noundef nonnull align 8 dereferenceable(20) %16, ptr noundef nonnull align 8 dereferenceable(20) %18)
  %20 = getelementptr inbounds nuw %"class.pxrInternal_v0_24__pxrReserved__::TsTest_SplineData", ptr %5, i32 0, i32 3
  %21 = load ptr, ptr %4, align 8
  %22 = getelementptr inbounds nuw %"class.pxrInternal_v0_24__pxrReserved__::TsTest_SplineData", ptr %21, i32 0, i32 3
  %23 = call noundef nonnull align 8 dereferenceable(20) ptr @_ZN32pxrInternal_v0_24__pxrReserved__17TsTest_SplineData13ExtrapolationaSERKS1_(ptr noundef nonnull align 8 dereferenceable(20) %20, ptr noundef nonnull align 8 dereferenceable(20) %22)
  %24 = getelementptr inbounds nuw %"class.pxrInternal_v0_24__pxrReserved__::TsTest_SplineData", ptr %5, i32 0, i32 4
  %25 = load ptr, ptr %4, align 8
  %26 = getelementptr inbounds nuw %"class.pxrInternal_v0_24__pxrReserved__::TsTest_SplineData", ptr %25, i32 0, i32 4
  %27 = call noundef nonnull align 8 dereferenceable(56) ptr @_ZN32pxrInternal_v0_24__pxrReserved__17TsTest_SplineData15InnerLoopParamsaSERKS1_(ptr noundef nonnull align 8 dereferenceable(56) %24, ptr noundef nonnull align 8 dereferenceable(56) %26)
  ret ptr %5
}