; Function Attrs: mustprogress uwtable
define noundef nonnull align 8 dereferenceable(160) ptr @_ZN32pxrInternal_v0_24__pxrReserved__17TsTest_SplineDataaSERKS0_(ptr noundef nonnull returned align 8 dereferenceable(160) %0, ptr noundef nonnull align 8 dereferenceable(160) %1) local_unnamed_addr #0 align 2 {
  %3 = load i8, ptr %1, align 8
  %4 = and i8 %3, 1
  store i8 %4, ptr %0, align 8
  %5 = getelementptr inbounds nuw i8, ptr %0, i64 8
  %6 = getelementptr inbounds nuw i8, ptr %1, i64 8
  %7 = tail call noundef nonnull align 8 dereferenceable(48) ptr @_ZNSt8_Rb_treeIN32pxrInternal_v0_24__pxrReserved__17TsTest_SplineData4KnotES2_St9_IdentityIS2_ESt4lessIS2_ESaIS2_EEaSERKS8_(ptr noundef nonnull align 8 dereferenceable(48) %5, ptr noundef nonnull align 8 dereferenceable(48) %6)
  %8 = getelementptr inbounds nuw i8, ptr %0, i64 56
  %9 = getelementptr inbounds nuw i8, ptr %1, i64 56
  tail call void @llvm.memcpy.p0.p0.i64(ptr noundef nonnull align 8 dereferenceable(20) %8, ptr noundef nonnull readonly align 8 dereferenceable(20) %9, i64 20, i1 false)
  %10 = getelementptr inbounds nuw i8, ptr %0, i64 80
  %11 = getelementptr inbounds nuw i8, ptr %1, i64 80
  tail call void @llvm.memcpy.p0.p0.i64(ptr noundef nonnull align 8 dereferenceable(20) %10, ptr noundef nonnull readonly align 8 dereferenceable(20) %11, i64 20, i1 false)
  %12 = getelementptr inbounds nuw i8, ptr %0, i64 104
  %13 = getelementptr inbounds nuw i8, ptr %1, i64 104
  tail call void @llvm.memcpy.p0.p0.i64(ptr noundef nonnull align 8 dereferenceable(56) %12, ptr noundef nonnull readonly align 8 dereferenceable(56) %13, i64 56, i1 false)
  ret ptr %0
}